(lp0
(dp1
S'corr_steps'
p2
I1
sS'therm_steps_number'
p3
I1000
sS'meas_len'
p4
I400
sS'succession_len'
p5
I7
sS'flux'
p6
F1.25
sS'beta'
p7
F6.0
sS'meas_object'
p8
S'S'
p9
sS'Ns'
p10
I4
sS'Nt'
p11
I2
sa(dp12
g2
I1
sg3
I1000
sg4
I200
sg5
I7
sg6
F1.25
sg7
F6.0
sg8
g9
sg10
I8
sg11
I2
sa(dp13
g2
I1
sg3
I1000
sg4
I100
sg5
I7
sg6
F1.25
sg7
F6.0
sg8
g9
sg10
I12
sg11
I2
sa(dp14
g2
I1
sg3
I1000
sg4
I80
sg5
I7
sg6
F1.25
sg7
F6.0
sg8
g9
sg10
I16
sg11
I2
sa(dp15
g2
I1
sg3
I1000
sg4
I64
sg5
I7
sg6
F1.25
sg7
F6.0
sg8
g9
sg10
I20
sg11
I2
sa(dp16
g2
I1
sg3
I1000
sg4
I32
sg5
I7
sg6
F1.25
sg7
F6.0
sg8
g9
sg10
I24
sg11
I2
sa(dp17
g2
I1
sg3
I1000
sg4
I16
sg5
I7
sg6
F1.25
sg7
F6.0
sg8
g9
sg10
I28
sg11
I2
sa(dp18
g2
I1
sg3
I1000
sg4
I8
sg5
I7
sg6
F1.25
sg7
F6.0
sg8
g9
sg10
I32
sg11
I2
sa.